; Function Attrs: mustprogress nounwind uwtable
define internal fastcc void @_ZN7testing8internal10linked_ptrISt5tupleIJNSt7__cxx1112basic_stringIcSt11char_traitsIcESaIcEEEibN11opencv_test12_GLOBAL__N_112_GLOBAL__N_113PyrBorderModeEbEEED2Ev(ptr noundef nonnull readonly align 8 dereferenceable(16) %0) unnamed_addr #7 align 2 personality ptr @__gxx_personality_v0 {
  %2 = getelementptr inbounds nuw i8, ptr %0, i64 8
  invoke void @_ZN7testing8internal9MutexBase4LockEv(ptr noundef nonnull align 8 dereferenceable(56) @_ZN7testing8internal18g_linked_ptr_mutexE)
          to label %.noexc unwind label %22

.noexc:                                           ; preds = %1
  %3 = load ptr, ptr %2, align 8, !tbaa !52
  %4 = icmp eq ptr %3, %2
  br i1 %4, label %7, label %.preheader.i.i

.preheader.i.i:                                   ; preds = %.noexc, %.preheader.i.i
  %.0.i.i = phi ptr [ %5, %.preheader.i.i ], [ %3, %.noexc ]
  %5 = load ptr, ptr %.0.i.i, align 8, !tbaa !52
  %.not.i.i = icmp eq ptr %5, %2
  br i1 %.not.i.i, label %6, label %.preheader.i.i, !llvm.loop !69

6:                                                ; preds = %.preheader.i.i
  store ptr %3, ptr %.0.i.i, align 8, !tbaa !52
  br label %7

7:                                                ; preds = %6, %.noexc
  invoke void @_ZN7testing8internal9MutexBase6UnlockEv(ptr noundef nonnull align 8 dereferenceable(56) @_ZN7testing8internal18g_linked_ptr_mutexE)
          to label %_ZN7testing8internal19linked_ptr_internal6departEv.exit.i unwind label %8

8:                                                ; preds = %7
  %9 = landingpad { ptr, i32 }
          catch ptr null
  %10 = extractvalue { ptr, i32 } %9, 0
  tail call void @__clang_call_terminate(ptr %10) #30
  unreachable

_ZN7testing8internal19linked_ptr_internal6departEv.exit.i: ; preds = %7
  br i1 %4, label %11, label %_ZN7testing8internal10linked_ptrISt5tupleIJNSt7__cxx1112basic_stringIcSt11char_traitsIcESaIcEEEibN11opencv_test12_GLOBAL__N_112_GLOBAL__N_113PyrBorderModeEbEEE6departEv.exit

11:                                               ; preds = %_ZN7testing8internal19linked_ptr_internal6departEv.exit.i
  %12 = load ptr, ptr %0, align 8, !tbaa !833
  %13 = icmp eq ptr %12, null
  br i1 %13, label %_ZN7testing8internal10linked_ptrISt5tupleIJNSt7__cxx1112basic_stringIcSt11char_traitsIcESaIcEEEibN11opencv_test12_GLOBAL__N_112_GLOBAL__N_113PyrBorderModeEbEEE6departEv.exit, label %14

14:                                               ; preds = %11
  %15 = getelementptr inbounds nuw i8, ptr %12, i64 16
  %16 = load ptr, ptr %15, align 8, !tbaa !17
  %17 = getelementptr inbounds nuw i8, ptr %12, i64 32
  %18 = icmp eq ptr %16, %17
  br i1 %18, label %_ZNKSt7__cxx1112basic_stringIcSt11char_traitsIcESaIcEE11_M_is_localEv.exit.thread.i.i.i.i.i, label %_ZNKSt7__cxx1112basic_stringIcSt11char_traitsIcESaIcEE11_M_is_localEv.exit.i.i.i.i.i

_ZNKSt7__cxx1112basic_stringIcSt11char_traitsIcESaIcEE11_M_is_localEv.exit.thread.i.i.i.i.i: ; preds = %14
  %19 = getelementptr inbounds nuw i8, ptr %12, i64 24
  %20 = load i64, ptr %19, align 8, !tbaa !20
  %21 = icmp ult i64 %20, 16
  tail call void @llvm.assume(i1 %21)
  br label %_ZNSt11_Tuple_implILm0EJNSt7__cxx1112basic_stringIcSt11char_traitsIcESaIcEEEibN11opencv_test12_GLOBAL__N_112_GLOBAL__N_113PyrBorderModeEbEED2Ev.exit.i

_ZNKSt7__cxx1112basic_stringIcSt11char_traitsIcESaIcEE11_M_is_localEv.exit.i.i.i.i.i: ; preds = %14
  tail call void @_ZdlPv(ptr noundef %16) #29
  br label %_ZNSt11_Tuple_implILm0EJNSt7__cxx1112basic_stringIcSt11char_traitsIcESaIcEEEibN11opencv_test12_GLOBAL__N_112_GLOBAL__N_113PyrBorderModeEbEED2Ev.exit.i

_ZNSt11_Tuple_implILm0EJNSt7__cxx1112basic_stringIcSt11char_traitsIcESaIcEEEibN11opencv_test12_GLOBAL__N_112_GLOBAL__N_113PyrBorderModeEbEED2Ev.exit.i: ; preds = %_ZNKSt7__cxx1112basic_stringIcSt11char_traitsIcESaIcEE11_M_is_localEv.exit.i.i.i.i.i, %_ZNKSt7__cxx1112basic_stringIcSt11char_traitsIcESaIcEE11_M_is_localEv.exit.thread.i.i.i.i.i
  tail call void @_ZdlPv(ptr noundef nonnull %12) #29
  br label %_ZN7testing8internal10linked_ptrISt5tupleIJNSt7__cxx1112basic_stringIcSt11char_traitsIcESaIcEEEibN11opencv_test12_GLOBAL__N_112_GLOBAL__N_113PyrBorderModeEbEEE6departEv.exit

_ZN7testing8internal10linked_ptrISt5tupleIJNSt7__cxx1112basic_stringIcSt11char_traitsIcESaIcEEEibN11opencv_test12_GLOBAL__N_112_GLOBAL__N_113PyrBorderModeEbEEE6departEv.exit: ; preds = %_ZNSt11_Tuple_implILm0EJNSt7__cxx1112basic_stringIcSt11char_traitsIcESaIcEEEibN11opencv_test12_GLOBAL__N_112_GLOBAL__N_113PyrBorderModeEbEED2Ev.exit.i, %11, %_ZN7testing8internal19linked_ptr_internal6departEv.exit.i
  ret void

22:                                               ; preds = %1
  %23 = landingpad { ptr, i32 }
          catch ptr null
  %24 = extractvalue { ptr, i32 } %23, 0
  tail call void @__clang_call_terminate(ptr %24) #30
  unreachable
}